target datalayout = "e-m:e-p270:32:32-p271:32:32-p272:64:64-i64:64-i128:128-f80:128-n8:16:32:64-S128"
target triple = "x86_64-pc-linux-gnu"

%struct.AVFilterContext = type { ptr, ptr, ptr, ptr, ptr, i32, ptr, ptr, i32, ptr, ptr, i32, i32, ptr, ptr, ptr, ptr, i32, ptr, i32, i32 }
%struct.TestSourceContext = type { ptr, i32, i32, i32, i32, i32, %struct.AVRational, %struct.AVRational, i64, i64, %struct.AVRational, i32, i32, ptr, ptr, i32, i32, [4 x i8], i32, %struct.FFDrawContext, %struct.FFDrawColor, [4 x i8], [4 x i8], i32, i32, i32, i32, i32, i32, i32, i32, i32, i32, i32, i32, i32, i32, i32, i32, i32, i32, i32, ptr, ptr }
%struct.AVRational = type { i32, i32 }
%struct.FFDrawContext = type { ptr, i32, i32, [4 x i32], [4 x i8], [4 x i8], i8, i8, i32, i32, i32, [3 x [3 x double]] }
%struct.FFDrawColor = type { [4 x i8], [4 x %union.anon.2] }
%union.anon.2 = type { [4 x i32] }
%struct.AVChannelLayout = type { i32, i32, %union.anon.1, ptr }
%union.anon.1 = type { i64 }
%struct.AVFrame = type { [8 x ptr], [8 x i32], ptr, i32, i32, i32, i32, i32, %struct.AVRational, i64, i64, %struct.AVRational, i32, ptr, i32, i32, [8 x ptr], ptr, i32, ptr, i32, i32, i32, i32, i32, i32, i32, i64, ptr, i32, ptr, ptr, i64, i64, i64, i64, ptr, %struct.AVChannelLayout, i64 }
%struct.AVPixFmtDescriptor = type { ptr, i8, i8, i8, i64, [4 x %struct.AVComponentDescriptor], ptr }
%struct.AVComponentDescriptor = type { i32, i32, i32, i32, i32 }

@white = internal constant [4 x i8] c"\EB\80\80\FF", align 1
@rainbow = internal constant [7 x [4 x i8]] [[4 x i8] c"\B4\80\80\FF", [4 x i8] c"\A2,\8E\FF", [4 x i8] c"\83\9C,\FF", [4 x i8] c"pH:\FF", [4 x i8] c"T\B8\C6\FF", [4 x i8] c"Ad\D4\FF", [4 x i8] c"#\D4r\FF"], align 16
@black0 = internal constant [4 x i8] c"\10\80\80\FF", align 1
@wobnair = internal constant [7 x [4 x i8]] [[4 x i8] c"#\D4r\FF", [4 x i8] c"\13\80\80\FF", [4 x i8] c"T\B8\C6\FF", [4 x i8] c"\13\80\80\FF", [4 x i8] c"\83\9C,\FF", [4 x i8] c"\13\80\80\FF", [4 x i8] c"\B4\80\80\FF"], align 16
@i_pixel = internal constant [4 x i8] c"9\9Ca\FF", align 1
@q_pixel = internal constant [4 x i8] c",\AB\93\FF", align 1
@neg4ire = internal constant [4 x i8] c"\07\80\80\FF", align 1
@pos4ire = internal constant [4 x i8] c"\18\80\80\FF", align 1

; Function Attrs: nounwind uwtable
define internal void @smptebars_fill_picture(ptr noundef %0, ptr noundef %1) #1 {
  %3 = alloca ptr, align 8
  %4 = alloca ptr, align 8
  %5 = alloca ptr, align 8
  %6 = alloca i32, align 4
  %7 = alloca i32, align 4
  %8 = alloca i32, align 4
  %9 = alloca i32, align 4
  %10 = alloca i32, align 4
  %11 = alloca i32, align 4
  %12 = alloca i32, align 4
  %13 = alloca i32, align 4
  %14 = alloca ptr, align 8
  store ptr %0, ptr %3, align 8, !tbaa !4
  store ptr %1, ptr %4, align 8, !tbaa !55
  call void @llvm.lifetime.start.p0(i64 8, ptr %5) #15
  %15 = load ptr, ptr %3, align 8, !tbaa !4
  %16 = getelementptr inbounds nuw %struct.AVFilterContext, ptr %15, i32 0, i32 9
  %17 = load ptr, ptr %16, align 8, !tbaa !9
  store ptr %17, ptr %5, align 8, !tbaa !22
  call void @llvm.lifetime.start.p0(i64 4, ptr %6) #15
  call void @llvm.lifetime.start.p0(i64 4, ptr %7) #15
  call void @llvm.lifetime.start.p0(i64 4, ptr %8) #15
  call void @llvm.lifetime.start.p0(i64 4, ptr %9) #15
  call void @llvm.lifetime.start.p0(i64 4, ptr %10) #15
  call void @llvm.lifetime.start.p0(i64 4, ptr %11) #15
  call void @llvm.lifetime.start.p0(i64 4, ptr %12) #15
  call void @llvm.lifetime.start.p0(i64 4, ptr %13) #15
  store i32 0, ptr %13, align 4, !tbaa !36
  call void @llvm.lifetime.start.p0(i64 8, ptr %14) #15
  %18 = load ptr, ptr %4, align 8, !tbaa !55
  %19 = getelementptr inbounds nuw %struct.AVFrame, ptr %18, i32 0, i32 6
  %20 = load i32, ptr %19, align 4, !tbaa !89
  %21 = call ptr @av_pix_fmt_desc_get(i32 noundef %20)
  store ptr %21, ptr %14, align 8, !tbaa !90
  %22 = load ptr, ptr %5, align 8, !tbaa !22
  %23 = getelementptr inbounds nuw %struct.TestSourceContext, ptr %22, i32 0, i32 1
  %24 = load i32, ptr %23, align 8, !tbaa !46
  %25 = add nsw i32 %24, 6
  %26 = sdiv i32 %25, 7
  %27 = load ptr, ptr %14, align 8, !tbaa !90
  %28 = getelementptr inbounds nuw %struct.AVPixFmtDescriptor, ptr %27, i32 0, i32 2
  %29 = load i8, ptr %28, align 1, !tbaa !147
  %30 = zext i8 %29 to i32
  %31 = shl i32 1, %30
  %32 = add nsw i32 %26, %31
  %33 = sub nsw i32 %32, 1
  %34 = load ptr, ptr %14, align 8, !tbaa !90
  %35 = getelementptr inbounds nuw %struct.AVPixFmtDescriptor, ptr %34, i32 0, i32 2
  %36 = load i8, ptr %35, align 1, !tbaa !147
  %37 = zext i8 %36 to i32
  %38 = shl i32 1, %37
  %39 = sub nsw i32 %38, 1
  %40 = xor i32 %39, -1
  %41 = and i32 %33, %40
  store i32 %41, ptr %6, align 4, !tbaa !36
  %42 = load ptr, ptr %5, align 8, !tbaa !22
  %43 = getelementptr inbounds nuw %struct.TestSourceContext, ptr %42, i32 0, i32 2
  %44 = load i32, ptr %43, align 4, !tbaa !47
  %45 = mul nsw i32 %44, 2
  %46 = sdiv i32 %45, 3
  %47 = load ptr, ptr %14, align 8, !tbaa !90
  %48 = getelementptr inbounds nuw %struct.AVPixFmtDescriptor, ptr %47, i32 0, i32 3
  %49 = load i8, ptr %48, align 2, !tbaa !149
  %50 = zext i8 %49 to i32
  %51 = shl i32 1, %50
  %52 = add nsw i32 %46, %51
  %53 = sub nsw i32 %52, 1
  %54 = load ptr, ptr %14, align 8, !tbaa !90
  %55 = getelementptr inbounds nuw %struct.AVPixFmtDescriptor, ptr %54, i32 0, i32 3
  %56 = load i8, ptr %55, align 2, !tbaa !149
  %57 = zext i8 %56 to i32
  %58 = shl i32 1, %57
  %59 = sub nsw i32 %58, 1
  %60 = xor i32 %59, -1
  %61 = and i32 %53, %60
  store i32 %61, ptr %7, align 4, !tbaa !36
  %62 = load ptr, ptr %5, align 8, !tbaa !22
  %63 = getelementptr inbounds nuw %struct.TestSourceContext, ptr %62, i32 0, i32 2
  %64 = load i32, ptr %63, align 4, !tbaa !47
  %65 = mul nsw i32 %64, 3
  %66 = sdiv i32 %65, 4
  %67 = load i32, ptr %7, align 4, !tbaa !36
  %68 = sub nsw i32 %66, %67
  %69 = load ptr, ptr %14, align 8, !tbaa !90
  %70 = getelementptr inbounds nuw %struct.AVPixFmtDescriptor, ptr %69, i32 0, i32 3
  %71 = load i8, ptr %70, align 2, !tbaa !149
  %72 = zext i8 %71 to i32
  %73 = shl i32 1, %72
  %74 = add nsw i32 %68, %73
  %75 = sub nsw i32 %74, 1
  %76 = load ptr, ptr %14, align 8, !tbaa !90
  %77 = getelementptr inbounds nuw %struct.AVPixFmtDescriptor, ptr %76, i32 0, i32 3
  %78 = load i8, ptr %77, align 2, !tbaa !149
  %79 = zext i8 %78 to i32
  %80 = shl i32 1, %79
  %81 = sub nsw i32 %80, 1
  %82 = xor i32 %81, -1
  %83 = and i32 %75, %82
  store i32 %83, ptr %8, align 4, !tbaa !36
  %84 = load i32, ptr %6, align 4, !tbaa !36
  %85 = mul nsw i32 %84, 5
  %86 = sdiv i32 %85, 4
  %87 = load ptr, ptr %14, align 8, !tbaa !90
  %88 = getelementptr inbounds nuw %struct.AVPixFmtDescriptor, ptr %87, i32 0, i32 2
  %89 = load i8, ptr %88, align 1, !tbaa !147
  %90 = zext i8 %89 to i32
  %91 = shl i32 1, %90
  %92 = add nsw i32 %86, %91
  %93 = sub nsw i32 %92, 1
  %94 = load ptr, ptr %14, align 8, !tbaa !90
  %95 = getelementptr inbounds nuw %struct.AVPixFmtDescriptor, ptr %94, i32 0, i32 2
  %96 = load i8, ptr %95, align 1, !tbaa !147
  %97 = zext i8 %96 to i32
  %98 = shl i32 1, %97
  %99 = sub nsw i32 %98, 1
  %100 = xor i32 %99, -1
  %101 = and i32 %93, %100
  store i32 %101, ptr %9, align 4, !tbaa !36
  %102 = load ptr, ptr %5, align 8, !tbaa !22
  %103 = getelementptr inbounds nuw %struct.TestSourceContext, ptr %102, i32 0, i32 2
  %104 = load i32, ptr %103, align 4, !tbaa !47
  %105 = load i32, ptr %8, align 4, !tbaa !36
  %106 = sub nsw i32 %104, %105
  %107 = load i32, ptr %7, align 4, !tbaa !36
  %108 = sub nsw i32 %106, %107
  store i32 %108, ptr %10, align 4, !tbaa !36
  store i32 0, ptr %11, align 4, !tbaa !36
  br label %109

109:                                              ; preds = %135, %2
  %110 = load i32, ptr %11, align 4, !tbaa !36
  %111 = icmp slt i32 %110, 7
  br i1 %111, label %112, label %138

112:                                              ; preds = %109
  %113 = load ptr, ptr %5, align 8, !tbaa !22
  %114 = load i32, ptr %11, align 4, !tbaa !36
  %115 = sext i32 %114 to i64
  %116 = getelementptr inbounds [7 x [4 x i8]], ptr @rainbow, i64 0, i64 %115
  %117 = getelementptr inbounds [4 x i8], ptr %116, i64 0, i64 0
  %118 = load i32, ptr %13, align 4, !tbaa !36
  %119 = load i32, ptr %6, align 4, !tbaa !36
  %120 = load i32, ptr %7, align 4, !tbaa !36
  %121 = load ptr, ptr %4, align 8, !tbaa !55
  call void @draw_bar(ptr noundef %113, ptr noundef %117, i32 noundef %118, i32 noundef 0, i32 noundef %119, i32 noundef %120, ptr noundef %121)
  %122 = load ptr, ptr %5, align 8, !tbaa !22
  %123 = load i32, ptr %11, align 4, !tbaa !36
  %124 = sext i32 %123 to i64
  %125 = getelementptr inbounds [7 x [4 x i8]], ptr @wobnair, i64 0, i64 %124
  %126 = getelementptr inbounds [4 x i8], ptr %125, i64 0, i64 0
  %127 = load i32, ptr %13, align 4, !tbaa !36
  %128 = load i32, ptr %7, align 4, !tbaa !36
  %129 = load i32, ptr %6, align 4, !tbaa !36
  %130 = load i32, ptr %8, align 4, !tbaa !36
  %131 = load ptr, ptr %4, align 8, !tbaa !55
  call void @draw_bar(ptr noundef %122, ptr noundef %126, i32 noundef %127, i32 noundef %128, i32 noundef %129, i32 noundef %130, ptr noundef %131)
  %132 = load i32, ptr %6, align 4, !tbaa !36
  %133 = load i32, ptr %13, align 4, !tbaa !36
  %134 = add nsw i32 %133, %132
  store i32 %134, ptr %13, align 4, !tbaa !36
  br label %135

135:                                              ; preds = %112
  %136 = load i32, ptr %11, align 4, !tbaa !36
  %137 = add nsw i32 %136, 1
  store i32 %137, ptr %11, align 4, !tbaa !36
  br label %109, !llvm.loop !153

138:                                              ; preds = %109
  store i32 0, ptr %13, align 4, !tbaa !36
  %139 = load ptr, ptr %5, align 8, !tbaa !22
  %140 = load i32, ptr %13, align 4, !tbaa !36
  %141 = load i32, ptr %7, align 4, !tbaa !36
  %142 = load i32, ptr %8, align 4, !tbaa !36
  %143 = add nsw i32 %141, %142
  %144 = load i32, ptr %9, align 4, !tbaa !36
  %145 = load i32, ptr %10, align 4, !tbaa !36
  %146 = load ptr, ptr %4, align 8, !tbaa !55
  call void @draw_bar(ptr noundef %139, ptr noundef @i_pixel, i32 noundef %140, i32 noundef %143, i32 noundef %144, i32 noundef %145, ptr noundef %146)
  %147 = load i32, ptr %9, align 4, !tbaa !36
  %148 = load i32, ptr %13, align 4, !tbaa !36
  %149 = add nsw i32 %148, %147
  store i32 %149, ptr %13, align 4, !tbaa !36
  %150 = load ptr, ptr %5, align 8, !tbaa !22
  %151 = load i32, ptr %13, align 4, !tbaa !36
  %152 = load i32, ptr %7, align 4, !tbaa !36
  %153 = load i32, ptr %8, align 4, !tbaa !36
  %154 = add nsw i32 %152, %153
  %155 = load i32, ptr %9, align 4, !tbaa !36
  %156 = load i32, ptr %10, align 4, !tbaa !36
  %157 = load ptr, ptr %4, align 8, !tbaa !55
  call void @draw_bar(ptr noundef %150, ptr noundef @white, i32 noundef %151, i32 noundef %154, i32 noundef %155, i32 noundef %156, ptr noundef %157)
  %158 = load i32, ptr %9, align 4, !tbaa !36
  %159 = load i32, ptr %13, align 4, !tbaa !36
  %160 = add nsw i32 %159, %158
  store i32 %160, ptr %13, align 4, !tbaa !36
  %161 = load ptr, ptr %5, align 8, !tbaa !22
  %162 = load i32, ptr %13, align 4, !tbaa !36
  %163 = load i32, ptr %7, align 4, !tbaa !36
  %164 = load i32, ptr %8, align 4, !tbaa !36
  %165 = add nsw i32 %163, %164
  %166 = load i32, ptr %9, align 4, !tbaa !36
  %167 = load i32, ptr %10, align 4, !tbaa !36
  %168 = load ptr, ptr %4, align 8, !tbaa !55
  call void @draw_bar(ptr noundef %161, ptr noundef @q_pixel, i32 noundef %162, i32 noundef %165, i32 noundef %166, i32 noundef %167, ptr noundef %168)
  %169 = load i32, ptr %9, align 4, !tbaa !36
  %170 = load i32, ptr %13, align 4, !tbaa !36
  %171 = add nsw i32 %170, %169
  store i32 %171, ptr %13, align 4, !tbaa !36
  %172 = load i32, ptr %6, align 4, !tbaa !36
  %173 = mul nsw i32 5, %172
  %174 = load i32, ptr %13, align 4, !tbaa !36
  %175 = sub nsw i32 %173, %174
  %176 = load ptr, ptr %14, align 8, !tbaa !90
  %177 = getelementptr inbounds nuw %struct.AVPixFmtDescriptor, ptr %176, i32 0, i32 2
  %178 = load i8, ptr %177, align 1, !tbaa !147
  %179 = zext i8 %178 to i32
  %180 = shl i32 1, %179
  %181 = add nsw i32 %175, %180
  %182 = sub nsw i32 %181, 1
  %183 = load ptr, ptr %14, align 8, !tbaa !90
  %184 = getelementptr inbounds nuw %struct.AVPixFmtDescriptor, ptr %183, i32 0, i32 2
  %185 = load i8, ptr %184, align 1, !tbaa !147
  %186 = zext i8 %185 to i32
  %187 = shl i32 1, %186
  %188 = sub nsw i32 %187, 1
  %189 = xor i32 %188, -1
  %190 = and i32 %182, %189
  store i32 %190, ptr %12, align 4, !tbaa !36
  %191 = load ptr, ptr %5, align 8, !tbaa !22
  %192 = load i32, ptr %13, align 4, !tbaa !36
  %193 = load i32, ptr %7, align 4, !tbaa !36
  %194 = load i32, ptr %8, align 4, !tbaa !36
  %195 = add nsw i32 %193, %194
  %196 = load i32, ptr %12, align 4, !tbaa !36
  %197 = load i32, ptr %10, align 4, !tbaa !36
  %198 = load ptr, ptr %4, align 8, !tbaa !55
  call void @draw_bar(ptr noundef %191, ptr noundef @black0, i32 noundef %192, i32 noundef %195, i32 noundef %196, i32 noundef %197, ptr noundef %198)
  %199 = load i32, ptr %12, align 4, !tbaa !36
  %200 = load i32, ptr %13, align 4, !tbaa !36
  %201 = add nsw i32 %200, %199
  store i32 %201, ptr %13, align 4, !tbaa !36
  %202 = load i32, ptr %6, align 4, !tbaa !36
  %203 = sdiv i32 %202, 3
  %204 = load ptr, ptr %14, align 8, !tbaa !90
  %205 = getelementptr inbounds nuw %struct.AVPixFmtDescriptor, ptr %204, i32 0, i32 2
  %206 = load i8, ptr %205, align 1, !tbaa !147
  %207 = zext i8 %206 to i32
  %208 = shl i32 1, %207
  %209 = add nsw i32 %203, %208
  %210 = sub nsw i32 %209, 1
  %211 = load ptr, ptr %14, align 8, !tbaa !90
  %212 = getelementptr inbounds nuw %struct.AVPixFmtDescriptor, ptr %211, i32 0, i32 2
  %213 = load i8, ptr %212, align 1, !tbaa !147
  %214 = zext i8 %213 to i32
  %215 = shl i32 1, %214
  %216 = sub nsw i32 %215, 1
  %217 = xor i32 %216, -1
  %218 = and i32 %210, %217
  store i32 %218, ptr %12, align 4, !tbaa !36
  %219 = load ptr, ptr %5, align 8, !tbaa !22
  %220 = load i32, ptr %13, align 4, !tbaa !36
  %221 = load i32, ptr %7, align 4, !tbaa !36
  %222 = load i32, ptr %8, align 4, !tbaa !36
  %223 = add nsw i32 %221, %222
  %224 = load i32, ptr %12, align 4, !tbaa !36
  %225 = load i32, ptr %10, align 4, !tbaa !36
  %226 = load ptr, ptr %4, align 8, !tbaa !55
  call void @draw_bar(ptr noundef %219, ptr noundef @neg4ire, i32 noundef %220, i32 noundef %223, i32 noundef %224, i32 noundef %225, ptr noundef %226)
  %227 = load i32, ptr %12, align 4, !tbaa !36
  %228 = load i32, ptr %13, align 4, !tbaa !36
  %229 = add nsw i32 %228, %227
  store i32 %229, ptr %13, align 4, !tbaa !36
  %230 = load ptr, ptr %5, align 8, !tbaa !22
  %231 = load i32, ptr %13, align 4, !tbaa !36
  %232 = load i32, ptr %7, align 4, !tbaa !36
  %233 = load i32, ptr %8, align 4, !tbaa !36
  %234 = add nsw i32 %232, %233
  %235 = load i32, ptr %12, align 4, !tbaa !36
  %236 = load i32, ptr %10, align 4, !tbaa !36
  %237 = load ptr, ptr %4, align 8, !tbaa !55
  call void @draw_bar(ptr noundef %230, ptr noundef @black0, i32 noundef %231, i32 noundef %234, i32 noundef %235, i32 noundef %236, ptr noundef %237)
  %238 = load i32, ptr %12, align 4, !tbaa !36
  %239 = load i32, ptr %13, align 4, !tbaa !36
  %240 = add nsw i32 %239, %238
  store i32 %240, ptr %13, align 4, !tbaa !36
  %241 = load ptr, ptr %5, align 8, !tbaa !22
  %242 = load i32, ptr %13, align 4, !tbaa !36
  %243 = load i32, ptr %7, align 4, !tbaa !36
  %244 = load i32, ptr %8, align 4, !tbaa !36
  %245 = add nsw i32 %243, %244
  %246 = load i32, ptr %12, align 4, !tbaa !36
  %247 = load i32, ptr %10, align 4, !tbaa !36
  %248 = load ptr, ptr %4, align 8, !tbaa !55
  call void @draw_bar(ptr noundef %241, ptr noundef @pos4ire, i32 noundef %242, i32 noundef %245, i32 noundef %246, i32 noundef %247, ptr noundef %248)
  %249 = load i32, ptr %12, align 4, !tbaa !36
  %250 = load i32, ptr %13, align 4, !tbaa !36
  %251 = add nsw i32 %250, %249
  store i32 %251, ptr %13, align 4, !tbaa !36
  %252 = load ptr, ptr %5, align 8, !tbaa !22
  %253 = load i32, ptr %13, align 4, !tbaa !36
  %254 = load i32, ptr %7, align 4, !tbaa !36
  %255 = load i32, ptr %8, align 4, !tbaa !36
  %256 = add nsw i32 %254, %255
  %257 = load ptr, ptr %5, align 8, !tbaa !22
  %258 = getelementptr inbounds nuw %struct.TestSourceContext, ptr %257, i32 0, i32 1
  %259 = load i32, ptr %258, align 8, !tbaa !46
  %260 = load i32, ptr %13, align 4, !tbaa !36
  %261 = sub nsw i32 %259, %260
  %262 = load i32, ptr %10, align 4, !tbaa !36
  %263 = load ptr, ptr %4, align 8, !tbaa !55
  call void @draw_bar(ptr noundef %252, ptr noundef @black0, i32 noundef %253, i32 noundef %256, i32 noundef %261, i32 noundef %262, ptr noundef %263)
  call void @llvm.lifetime.end.p0(i64 8, ptr %14) #15
  call void @llvm.lifetime.end.p0(i64 4, ptr %13) #15
  call void @llvm.lifetime.end.p0(i64 4, ptr %12) #15
  call void @llvm.lifetime.end.p0(i64 4, ptr %11) #15
  call void @llvm.lifetime.end.p0(i64 4, ptr %10) #15
  call void @llvm.lifetime.end.p0(i64 4, ptr %9) #15
  call void @llvm.lifetime.end.p0(i64 4, ptr %8) #15
  call void @llvm.lifetime.end.p0(i64 4, ptr %7) #15
  call void @llvm.lifetime.end.p0(i64 4, ptr %6) #15
  call void @llvm.lifetime.end.p0(i64 8, ptr %5) #15
  ret void
}