; Function Attrs: nounwind uwtable
define internal void @smptebars_fill_picture(ptr noundef readonly captures(none) %0, ptr noundef readonly captures(none) %1) #1 {
  %3 = getelementptr inbounds nuw i8, ptr %0, i64 72
  %4 = load ptr, ptr %3, align 8, !tbaa !4
  %5 = getelementptr inbounds nuw i8, ptr %1, i64 116
  %6 = load i32, ptr %5, align 4, !tbaa !71
  %7 = tail call ptr @av_pix_fmt_desc_get(i32 noundef %6) #20
  %8 = getelementptr inbounds nuw i8, ptr %4, i64 8
  %9 = load i32, ptr %8, align 8, !tbaa !36
  %10 = add nsw i32 %9, 6
  %11 = sdiv i32 %10, 7
  %12 = getelementptr inbounds nuw i8, ptr %7, i64 9
  %13 = load i8, ptr %12, align 1, !tbaa !117
  %14 = zext nneg i8 %13 to i32
  %15 = shl nuw i32 1, %14
  %16 = add i32 %15, -1
  %17 = add i32 %16, %11
  %18 = sub i32 0, %15
  %19 = and i32 %17, %18
  %20 = getelementptr inbounds nuw i8, ptr %4, i64 12
  %21 = load i32, ptr %20, align 4, !tbaa !37
  %22 = shl nsw i32 %21, 1
  %23 = sdiv i32 %22, 3
  %24 = getelementptr inbounds nuw i8, ptr %7, i64 10
  %25 = load i8, ptr %24, align 2, !tbaa !119
  %26 = zext nneg i8 %25 to i32
  %27 = shl nuw i32 1, %26
  %28 = add i32 %27, -1
  %29 = add i32 %28, %23
  %30 = sub i32 0, %27
  %31 = and i32 %29, %30
  %32 = mul nsw i32 %21, 3
  %33 = sdiv i32 %32, 4
  %34 = add i32 %28, %33
  %35 = sub i32 %34, %31
  %36 = and i32 %35, %30
  br label %37

37:                                               ; preds = %2, %37
  %indvars.iv = phi i64 [ 0, %2 ], [ %indvars.iv.next, %37 ]
  %.0112114 = phi i32 [ 0, %2 ], [ %40, %37 ]
  %38 = getelementptr inbounds nuw [7 x [4 x i8]], ptr @rainbow, i64 0, i64 %indvars.iv
  tail call fastcc void @draw_bar(ptr noundef nonnull %4, ptr noundef nonnull %38, i32 noundef %.0112114, i32 noundef 0, i32 noundef %19, i32 noundef %31, ptr noundef nonnull %1)
  %39 = getelementptr inbounds nuw [7 x [4 x i8]], ptr @wobnair, i64 0, i64 %indvars.iv
  tail call fastcc void @draw_bar(ptr noundef nonnull %4, ptr noundef nonnull %39, i32 noundef %.0112114, i32 noundef %31, i32 noundef %19, i32 noundef %36, ptr noundef nonnull %1)
  %40 = add nsw i32 %.0112114, %19
  %indvars.iv.next = add nuw nsw i64 %indvars.iv, 1
  %exitcond.not = icmp eq i64 %indvars.iv.next, 7
  br i1 %exitcond.not, label %41, label %37, !llvm.loop !123

41:                                               ; preds = %37
  %42 = add i32 %36, %31
  %43 = sub i32 %21, %42
  %44 = mul nsw i32 %19, 5
  %45 = sdiv i32 %44, 4
  %46 = add i32 %16, %45
  %47 = and i32 %46, %18
  tail call fastcc void @draw_bar(ptr noundef nonnull %4, ptr noundef nonnull @i_pixel, i32 noundef 0, i32 noundef %42, i32 noundef %47, i32 noundef %43, ptr noundef nonnull %1)
  tail call fastcc void @draw_bar(ptr noundef nonnull %4, ptr noundef nonnull @white, i32 noundef %47, i32 noundef %42, i32 noundef %47, i32 noundef %43, ptr noundef nonnull %1)
  %48 = shl nsw i32 %47, 1
  tail call fastcc void @draw_bar(ptr noundef nonnull %4, ptr noundef nonnull @q_pixel, i32 noundef %48, i32 noundef %42, i32 noundef %47, i32 noundef %43, ptr noundef nonnull %1)
  %49 = mul nsw i32 %47, 3
  %50 = load i8, ptr %12, align 1, !tbaa !117
  %51 = zext nneg i8 %50 to i32
  %52 = shl nuw i32 1, %51
  %53 = xor i32 %49, -1
  %54 = add i32 %44, %53
  %55 = add i32 %54, %52
  %56 = sub i32 0, %52
  %57 = and i32 %55, %56
  tail call fastcc void @draw_bar(ptr noundef nonnull %4, ptr noundef nonnull @black0, i32 noundef %49, i32 noundef %42, i32 noundef %57, i32 noundef %43, ptr noundef nonnull %1)
  %58 = add nsw i32 %57, %49
  %59 = sdiv i32 %19, 3
  %60 = load i8, ptr %12, align 1, !tbaa !117
  %61 = zext nneg i8 %60 to i32
  %62 = shl nuw i32 1, %61
  %63 = add nsw i32 %59, -1
  %64 = add i32 %63, %62
  %65 = sub i32 0, %62
  %66 = and i32 %64, %65
  tail call fastcc void @draw_bar(ptr noundef nonnull %4, ptr noundef nonnull @neg4ire, i32 noundef %58, i32 noundef %42, i32 noundef %66, i32 noundef %43, ptr noundef nonnull %1)
  %67 = add nsw i32 %66, %58
  tail call fastcc void @draw_bar(ptr noundef nonnull %4, ptr noundef nonnull @black0, i32 noundef %67, i32 noundef %42, i32 noundef %66, i32 noundef %43, ptr noundef nonnull %1)
  %68 = add nsw i32 %67, %66
  tail call fastcc void @draw_bar(ptr noundef nonnull %4, ptr noundef nonnull @pos4ire, i32 noundef %68, i32 noundef %42, i32 noundef %66, i32 noundef %43, ptr noundef nonnull %1)
  %69 = add nsw i32 %68, %66
  %70 = load i32, ptr %8, align 8, !tbaa !36
  %71 = sub nsw i32 %70, %69
  tail call fastcc void @draw_bar(ptr noundef nonnull %4, ptr noundef nonnull @black0, i32 noundef %69, i32 noundef %42, i32 noundef %71, i32 noundef %43, ptr noundef nonnull %1)
  ret void
}